target datalayout = "e-m:e-p270:32:32-p271:32:32-p272:64:64-i64:64-i128:128-f80:128-n8:16:32:64-S128"
target triple = "x86_64-pc-linux-gnu"

%struct.JsonPathParseItem = type { i32, ptr, %union.anon }
%union.anon = type { %struct.anon.2 }
%struct.anon.2 = type { ptr, ptr, i32, i32 }

@InterruptPending = external global i32, align 4

; Function Attrs: inlinehint nounwind uwtable
define internal ptr @DatumGetPointer(i64 noundef %0) #4 {
  %2 = alloca i64, align 8
  store i64 %0, ptr %2, align 8
  %3 = load i64, ptr %2, align 8
  %4 = inttoptr i64 %3 to ptr
  ret ptr %4
}

; Function Attrs: inlinehint nounwind uwtable
define internal i64 @PointerGetDatum(ptr noundef %0) #4 {
  %2 = alloca ptr, align 8
  store ptr %0, ptr %2, align 8
  %3 = load ptr, ptr %2, align 8
  %4 = ptrtoint ptr %3 to i64
  ret i64 %4
}

; Function Attrs: inlinehint nounwind uwtable
define internal ptr @DatumGetNumeric(i64 noundef %0) #4 {
  %2 = alloca i64, align 8
  store i64 %0, ptr %2, align 8
  %3 = load i64, ptr %2, align 8
  %4 = call ptr @DatumGetPointer(i64 noundef %3)
  %5 = call ptr @pg_detoast_datum(ptr noundef %4)
  ret ptr %5
}

; Function Attrs: inlinehint nounwind uwtable
define internal i64 @NumericGetDatum(ptr noundef %0) #4 {
  %2 = alloca ptr, align 8
  store ptr %0, ptr %2, align 8
  %3 = load ptr, ptr %2, align 8
  %4 = call i64 @PointerGetDatum(ptr noundef %3)
  ret i64 %4
}

; Function Attrs: nounwind uwtable
define internal ptr @makeItemType(i32 noundef %0) #0 {
  %2 = alloca i32, align 4
  %3 = alloca ptr, align 8
  store i32 %0, ptr %2, align 4
  call void @llvm.lifetime.start.p0(i64 8, ptr %3) #7
  %4 = call ptr @palloc(i64 noundef 40)
  store ptr %4, ptr %3, align 8
  br label %5

5:                                                ; preds = %1
  %6 = load volatile i32, ptr @InterruptPending, align 4
  %7 = icmp ne i32 %6, 0
  %8 = zext i1 %7 to i32
  %9 = sext i32 %8 to i64
  %10 = call i64 @llvm.expect.i64(i64 %9, i64 0)
  %11 = icmp ne i64 %10, 0
  br i1 %11, label %12, label %13

12:                                               ; preds = %5
  call void @ProcessInterrupts()
  br label %13

13:                                               ; preds = %12, %5
  br label %14

14:                                               ; preds = %13
  br label %15

15:                                               ; preds = %14
  %16 = load i32, ptr %2, align 4
  %17 = load ptr, ptr %3, align 8
  %18 = getelementptr inbounds nuw %struct.JsonPathParseItem, ptr %17, i32 0, i32 0
  store i32 %16, ptr %18, align 8
  %19 = load ptr, ptr %3, align 8
  %20 = getelementptr inbounds nuw %struct.JsonPathParseItem, ptr %19, i32 0, i32 1
  store ptr null, ptr %20, align 8
  %21 = load ptr, ptr %3, align 8
  call void @llvm.lifetime.end.p0(i64 8, ptr %3) #7
  ret ptr %21
}

; Function Attrs: nounwind uwtable
define internal ptr @makeItemUnary(i32 noundef %0, ptr noundef %1) #0 {
  %3 = alloca ptr, align 8
  %4 = alloca i32, align 4
  %5 = alloca ptr, align 8
  %6 = alloca ptr, align 8
  %7 = alloca i32, align 4
  store i32 %0, ptr %4, align 4
  store ptr %1, ptr %5, align 8
  call void @llvm.lifetime.start.p0(i64 8, ptr %6) #7
  %8 = load i32, ptr %4, align 4
  %9 = icmp eq i32 %8, 19
  br i1 %9, label %10, label %22

10:                                               ; preds = %2
  %11 = load ptr, ptr %5, align 8
  %12 = getelementptr inbounds nuw %struct.JsonPathParseItem, ptr %11, i32 0, i32 0
  %13 = load i32, ptr %12, align 8
  %14 = icmp eq i32 %13, 2
  br i1 %14, label %15, label %22

15:                                               ; preds = %10
  %16 = load ptr, ptr %5, align 8
  %17 = getelementptr inbounds nuw %struct.JsonPathParseItem, ptr %16, i32 0, i32 1
  %18 = load ptr, ptr %17, align 8
  %19 = icmp ne ptr %18, null
  br i1 %19, label %22, label %20

20:                                               ; preds = %15
  %21 = load ptr, ptr %5, align 8
  store ptr %21, ptr %3, align 8
  store i32 1, ptr %7, align 4
  br label %53

22:                                               ; preds = %15, %10, %2
  %23 = load i32, ptr %4, align 4
  %24 = icmp eq i32 %23, 20
  br i1 %24, label %25, label %46

25:                                               ; preds = %22
  %26 = load ptr, ptr %5, align 8
  %27 = getelementptr inbounds nuw %struct.JsonPathParseItem, ptr %26, i32 0, i32 0
  %28 = load i32, ptr %27, align 8
  %29 = icmp eq i32 %28, 2
  br i1 %29, label %30, label %46

30:                                               ; preds = %25
  %31 = load ptr, ptr %5, align 8
  %32 = getelementptr inbounds nuw %struct.JsonPathParseItem, ptr %31, i32 0, i32 1
  %33 = load ptr, ptr %32, align 8
  %34 = icmp ne ptr %33, null
  br i1 %34, label %46, label %35

35:                                               ; preds = %30
  %36 = call ptr @makeItemType(i32 noundef 2)
  store ptr %36, ptr %6, align 8
  %37 = load ptr, ptr %5, align 8
  %38 = getelementptr inbounds nuw %struct.JsonPathParseItem, ptr %37, i32 0, i32 2
  %39 = load ptr, ptr %38, align 8
  %40 = call i64 @NumericGetDatum(ptr noundef %39)
  %41 = call i64 @DirectFunctionCall1Coll(ptr noundef @numeric_uminus, i32 noundef 0, i64 noundef %40)
  %42 = call ptr @DatumGetNumeric(i64 noundef %41)
  %43 = load ptr, ptr %6, align 8
  %44 = getelementptr inbounds nuw %struct.JsonPathParseItem, ptr %43, i32 0, i32 2
  store ptr %42, ptr %44, align 8
  %45 = load ptr, ptr %6, align 8
  store ptr %45, ptr %3, align 8
  store i32 1, ptr %7, align 4
  br label %53

46:                                               ; preds = %30, %25, %22
  %47 = load i32, ptr %4, align 4
  %48 = call ptr @makeItemType(i32 noundef %47)
  store ptr %48, ptr %6, align 8
  %49 = load ptr, ptr %5, align 8
  %50 = load ptr, ptr %6, align 8
  %51 = getelementptr inbounds nuw %struct.JsonPathParseItem, ptr %50, i32 0, i32 2
  store ptr %49, ptr %51, align 8
  %52 = load ptr, ptr %6, align 8
  store ptr %52, ptr %3, align 8
  store i32 1, ptr %7, align 4
  br label %53

53:                                               ; preds = %46, %35, %20
  call void @llvm.lifetime.end.p0(i64 8, ptr %6) #7
  %54 = load ptr, ptr %3, align 8
  ret ptr %54
}