; Function Attrs: nounwind uwtable
define internal fastcc ptr @makeItemUnary(i32 noundef range(i32 6, 54) %0, ptr noundef %1) unnamed_addr #0 {
  switch i32 %0, label %26 [
    i32 19, label %3
    i32 20, label %9
  ]

3:                                                ; preds = %2
  %4 = load i32, ptr %1, align 8
  %5 = icmp eq i32 %4, 2
  br i1 %5, label %6, label %26

6:                                                ; preds = %3
  %7 = getelementptr inbounds nuw i8, ptr %1, i64 8
  %8 = load ptr, ptr %7, align 8
  %.not = icmp eq ptr %8, null
  br i1 %.not, label %32, label %26

9:                                                ; preds = %2
  %10 = load i32, ptr %1, align 8
  %11 = icmp eq i32 %10, 2
  br i1 %11, label %12, label %26

12:                                               ; preds = %9
  %13 = getelementptr inbounds nuw i8, ptr %1, i64 8
  %14 = load ptr, ptr %13, align 8
  %.not14 = icmp eq ptr %14, null
  br i1 %.not14, label %15, label %26

15:                                               ; preds = %12
  %16 = tail call ptr @palloc(i64 noundef 40) #6
  %17 = load volatile i32, ptr @InterruptPending, align 4
  %.not.i = icmp eq i32 %17, 0
  br i1 %.not.i, label %makeItemType.exit, label %18, !prof !6

18:                                               ; preds = %15
  tail call void @ProcessInterrupts() #6
  br label %makeItemType.exit

makeItemType.exit:                                ; preds = %15, %18
  store i32 2, ptr %16, align 8
  %19 = getelementptr inbounds nuw i8, ptr %16, i64 8
  store ptr null, ptr %19, align 8
  %20 = getelementptr inbounds nuw i8, ptr %1, i64 16
  %21 = load ptr, ptr %20, align 8
  %22 = ptrtoint ptr %21 to i64
  %23 = tail call i64 @DirectFunctionCall1Coll(ptr noundef nonnull @numeric_uminus, i32 noundef 0, i64 noundef %22) #6
  %24 = inttoptr i64 %23 to ptr
  %25 = tail call ptr @pg_detoast_datum(ptr noundef %24) #6
  br label %.sink.split

26:                                               ; preds = %3, %6, %2, %12, %9
  %27 = tail call ptr @palloc(i64 noundef 40) #6
  %28 = load volatile i32, ptr @InterruptPending, align 4
  %.not.i15 = icmp eq i32 %28, 0
  br i1 %.not.i15, label %makeItemType.exit16, label %29, !prof !6

29:                                               ; preds = %26
  tail call void @ProcessInterrupts() #6
  br label %makeItemType.exit16

makeItemType.exit16:                              ; preds = %26, %29
  store i32 %0, ptr %27, align 8
  %30 = getelementptr inbounds nuw i8, ptr %27, i64 8
  store ptr null, ptr %30, align 8
  br label %.sink.split

.sink.split:                                      ; preds = %makeItemType.exit, %makeItemType.exit16
  %.sink18 = phi ptr [ %27, %makeItemType.exit16 ], [ %16, %makeItemType.exit ]
  %.sink = phi ptr [ %1, %makeItemType.exit16 ], [ %25, %makeItemType.exit ]
  %31 = getelementptr inbounds nuw i8, ptr %.sink18, i64 16
  store ptr %.sink, ptr %31, align 8
  br label %32

32:                                               ; preds = %.sink.split, %6
  %.0 = phi ptr [ %1, %6 ], [ %.sink18, %.sink.split ]
  ret ptr %.0
}